target datalayout = "e-m:e-p270:32:32-p271:32:32-p272:64:64-i64:64-i128:128-f80:128-n8:16:32:64-S128"
target triple = "x86_64-pc-linux-gnu"

%struct.mlib_image = type { i32, i32, i32, i32, i32, i32, ptr, ptr, [4 x i8], i32, i32, [3 x i32] }

; Function Attrs: nounwind uwtable
define hidden void @mlib_ImageDeleteRowTable(ptr noundef %0) #0 {
  %2 = alloca ptr, align 8
  %3 = alloca ptr, align 8
  store ptr %0, ptr %2, align 8
  %4 = load ptr, ptr %2, align 8
  %5 = icmp eq ptr %4, null
  br i1 %5, label %6, label %7

6:                                                ; preds = %1
  br label %19

7:                                                ; preds = %1
  %8 = load ptr, ptr %2, align 8
  %9 = getelementptr inbounds %struct.mlib_image, ptr %8, i32 0, i32 7
  %10 = load ptr, ptr %9, align 8
  store ptr %10, ptr %3, align 8
  %11 = load ptr, ptr %3, align 8
  %12 = icmp ne ptr %11, null
  br i1 %12, label %14, label %13

13:                                               ; preds = %7
  br label %19

14:                                               ; preds = %7
  %15 = load ptr, ptr %3, align 8
  %16 = getelementptr inbounds ptr, ptr %15, i64 -2
  call void @mlib_free(ptr noundef %16)
  %17 = load ptr, ptr %2, align 8
  %18 = getelementptr inbounds %struct.mlib_image, ptr %17, i32 0, i32 7
  store ptr null, ptr %18, align 8
  br label %19

19:                                               ; preds = %14, %13, %6
  ret void
}

; Function Attrs: nounwind uwtable
define void @j2d_mlib_ImageDelete(ptr noundef %0) #0 {
  %2 = alloca ptr, align 8
  store ptr %0, ptr %2, align 8
  %3 = load ptr, ptr %2, align 8
  %4 = icmp eq ptr %3, null
  br i1 %4, label %5, label %6

5:                                                ; preds = %1
  br label %19

6:                                                ; preds = %1
  %7 = load ptr, ptr %2, align 8
  %8 = getelementptr inbounds %struct.mlib_image, ptr %7, i32 0, i32 5
  %9 = load i32, ptr %8, align 4
  %10 = and i32 %9, 2097152
  %11 = icmp eq i32 %10, 0
  br i1 %11, label %12, label %16

12:                                               ; preds = %6
  %13 = load ptr, ptr %2, align 8
  %14 = getelementptr inbounds %struct.mlib_image, ptr %13, i32 0, i32 6
  %15 = load ptr, ptr %14, align 8
  call void @mlib_free(ptr noundef %15)
  br label %16

16:                                               ; preds = %12, %6
  %17 = load ptr, ptr %2, align 8
  call void @mlib_ImageDeleteRowTable(ptr noundef %17)
  %18 = load ptr, ptr %2, align 8
  call void @mlib_free(ptr noundef %18)
  br label %19

19:                                               ; preds = %16, %5
  ret void
}