; Function Attrs: nounwind uwtable
define void @j2d_mlib_ImageDelete(ptr noundef %0) local_unnamed_addr #1 {
  %2 = icmp eq ptr %0, null
  br i1 %2, label %16, label %3

3:                                                ; preds = %1
  %4 = getelementptr inbounds i8, ptr %0, i64 20
  %5 = load i32, ptr %4, align 4
  %6 = and i32 %5, 2097152
  %7 = icmp eq i32 %6, 0
  br i1 %7, label %8, label %11

8:                                                ; preds = %3
  %9 = getelementptr inbounds i8, ptr %0, i64 24
  %10 = load ptr, ptr %9, align 8
  tail call void @mlib_free(ptr noundef %10) #7
  br label %11

11:                                               ; preds = %3, %8
  %12 = getelementptr inbounds i8, ptr %0, i64 32
  %13 = load ptr, ptr %12, align 8
  %.not.i = icmp eq ptr %13, null
  br i1 %.not.i, label %mlib_ImageDeleteRowTable.exit, label %14

14:                                               ; preds = %11
  %15 = getelementptr inbounds i8, ptr %13, i64 -16
  tail call void @mlib_free(ptr noundef nonnull %15) #7
  store ptr null, ptr %12, align 8
  br label %mlib_ImageDeleteRowTable.exit

mlib_ImageDeleteRowTable.exit:                    ; preds = %11, %14
  tail call void @mlib_free(ptr noundef nonnull %0) #7
  br label %16

16:                                               ; preds = %1, %mlib_ImageDeleteRowTable.exit
  ret void
}